target datalayout = "e-m:e-p270:32:32-p271:32:32-p272:64:64-i64:64-i128:128-f80:128-n8:16:32:64-S128"
target triple = "x86_64-pc-linux-gnu"

%struct.mbedtls_ecjpake_context = type { i32, %struct.mbedtls_ecp_group, i32, i32, %struct.mbedtls_ecp_point, %struct.mbedtls_ecp_point, %struct.mbedtls_ecp_point, %struct.mbedtls_ecp_point, %struct.mbedtls_ecp_point, %struct.mbedtls_mpi, %struct.mbedtls_mpi, %struct.mbedtls_mpi }
%struct.mbedtls_ecp_group = type { i32, %struct.mbedtls_mpi, %struct.mbedtls_mpi, %struct.mbedtls_mpi, %struct.mbedtls_ecp_point, %struct.mbedtls_mpi, i64, i64, i32, ptr, ptr, ptr, ptr, ptr, i64 }
%struct.mbedtls_ecp_point = type { %struct.mbedtls_mpi, %struct.mbedtls_mpi, %struct.mbedtls_mpi }
%struct.mbedtls_mpi = type { ptr, i16, i16 }

@ecjpake_id = internal constant [2 x ptr] [ptr @.str.6, ptr @.str.7], align 16

; Function Attrs: nounwind uwtable
define internal i32 @ecjpake_kkpp_read(i32 noundef %0, ptr noundef %1, i32 noundef %2, ptr noundef %3, ptr noundef %4, ptr noundef %5, ptr noundef %6, ptr noundef %7, i64 noundef %8) #0 {
  %10 = alloca i32, align 4
  %11 = alloca ptr, align 8
  %12 = alloca i32, align 4
  %13 = alloca ptr, align 8
  %14 = alloca ptr, align 8
  %15 = alloca ptr, align 8
  %16 = alloca ptr, align 8
  %17 = alloca ptr, align 8
  %18 = alloca i64, align 8
  %19 = alloca i32, align 4
  %20 = alloca ptr, align 8
  %21 = alloca ptr, align 8
  store i32 %0, ptr %10, align 4, !tbaa !19
  store ptr %1, ptr %11, align 8, !tbaa !26
  store i32 %2, ptr %12, align 4, !tbaa !19
  store ptr %3, ptr %13, align 8, !tbaa !28
  store ptr %4, ptr %14, align 8, !tbaa !28
  store ptr %5, ptr %15, align 8, !tbaa !28
  store ptr %6, ptr %16, align 8, !tbaa !20
  store ptr %7, ptr %17, align 8, !tbaa !20
  store i64 %8, ptr %18, align 8, !tbaa !22
  call void @llvm.lifetime.start.p0(i64 4, ptr %19) #9
  store i32 -110, ptr %19, align 4, !tbaa !19
  call void @llvm.lifetime.start.p0(i64 8, ptr %20) #9
  %22 = load ptr, ptr %17, align 8, !tbaa !20
  store ptr %22, ptr %20, align 8, !tbaa !20
  call void @llvm.lifetime.start.p0(i64 8, ptr %21) #9
  %23 = load ptr, ptr %17, align 8, !tbaa !20
  %24 = load i64, ptr %18, align 8, !tbaa !22
  %25 = getelementptr inbounds nuw i8, ptr %23, i64 %24
  store ptr %25, ptr %21, align 8, !tbaa !20
  br label %26

26:                                               ; preds = %9
  %27 = load i32, ptr %10, align 4, !tbaa !19
  %28 = load ptr, ptr %11, align 8, !tbaa !26
  %29 = load i32, ptr %12, align 4, !tbaa !19
  %30 = load ptr, ptr %13, align 8, !tbaa !28
  %31 = load ptr, ptr %14, align 8, !tbaa !28
  %32 = load ptr, ptr %16, align 8, !tbaa !20
  %33 = load ptr, ptr %21, align 8, !tbaa !20
  %34 = call i32 @ecjpake_kkp_read(i32 noundef %27, ptr noundef %28, i32 noundef %29, ptr noundef %30, ptr noundef %31, ptr noundef %32, ptr noundef %20, ptr noundef %33)
  store i32 %34, ptr %19, align 4, !tbaa !19
  %35 = icmp ne i32 %34, 0
  br i1 %35, label %36, label %37

36:                                               ; preds = %26
  br label %59

37:                                               ; preds = %26
  br label %38

38:                                               ; preds = %37
  br label %39

39:                                               ; preds = %38
  br label %40

40:                                               ; preds = %39
  %41 = load i32, ptr %10, align 4, !tbaa !19
  %42 = load ptr, ptr %11, align 8, !tbaa !26
  %43 = load i32, ptr %12, align 4, !tbaa !19
  %44 = load ptr, ptr %13, align 8, !tbaa !28
  %45 = load ptr, ptr %15, align 8, !tbaa !28
  %46 = load ptr, ptr %16, align 8, !tbaa !20
  %47 = load ptr, ptr %21, align 8, !tbaa !20
  %48 = call i32 @ecjpake_kkp_read(i32 noundef %41, ptr noundef %42, i32 noundef %43, ptr noundef %44, ptr noundef %45, ptr noundef %46, ptr noundef %20, ptr noundef %47)
  store i32 %48, ptr %19, align 4, !tbaa !19
  %49 = icmp ne i32 %48, 0
  br i1 %49, label %50, label %51

50:                                               ; preds = %40
  br label %59

51:                                               ; preds = %40
  br label %52

52:                                               ; preds = %51
  br label %53

53:                                               ; preds = %52
  %54 = load ptr, ptr %20, align 8, !tbaa !20
  %55 = load ptr, ptr %21, align 8, !tbaa !20
  %56 = icmp ne ptr %54, %55
  br i1 %56, label %57, label %58

57:                                               ; preds = %53
  store i32 -20352, ptr %19, align 4, !tbaa !19
  br label %58

58:                                               ; preds = %57, %53
  br label %59

59:                                               ; preds = %58, %50, %36
  %60 = load i32, ptr %19, align 4, !tbaa !19
  call void @llvm.lifetime.end.p0(i64 8, ptr %21) #9
  call void @llvm.lifetime.end.p0(i64 8, ptr %20) #9
  call void @llvm.lifetime.end.p0(i64 4, ptr %19) #9
  ret i32 %60
}

; Function Attrs: nounwind uwtable
define hidden i32 @mbedtls_ecjpake_read_round_one(ptr noundef %0, ptr noundef %1, i64 noundef %2) #0 {
  %4 = alloca ptr, align 8
  %5 = alloca ptr, align 8
  %6 = alloca i64, align 8
  store ptr %0, ptr %4, align 8, !tbaa !3
  store ptr %1, ptr %5, align 8, !tbaa !20
  store i64 %2, ptr %6, align 8, !tbaa !22
  %7 = load ptr, ptr %4, align 8, !tbaa !3
  %8 = getelementptr inbounds nuw %struct.mbedtls_ecjpake_context, ptr %7, i32 0, i32 0
  %9 = load i32, ptr %8, align 8, !tbaa !8
  %10 = load ptr, ptr %4, align 8, !tbaa !3
  %11 = getelementptr inbounds nuw %struct.mbedtls_ecjpake_context, ptr %10, i32 0, i32 1
  %12 = load ptr, ptr %4, align 8, !tbaa !3
  %13 = getelementptr inbounds nuw %struct.mbedtls_ecjpake_context, ptr %12, i32 0, i32 3
  %14 = load i32, ptr %13, align 4, !tbaa !18
  %15 = load ptr, ptr %4, align 8, !tbaa !3
  %16 = getelementptr inbounds nuw %struct.mbedtls_ecjpake_context, ptr %15, i32 0, i32 1
  %17 = getelementptr inbounds nuw %struct.mbedtls_ecp_group, ptr %16, i32 0, i32 4
  %18 = load ptr, ptr %4, align 8, !tbaa !3
  %19 = getelementptr inbounds nuw %struct.mbedtls_ecjpake_context, ptr %18, i32 0, i32 6
  %20 = load ptr, ptr %4, align 8, !tbaa !3
  %21 = getelementptr inbounds nuw %struct.mbedtls_ecjpake_context, ptr %20, i32 0, i32 7
  %22 = load ptr, ptr %4, align 8, !tbaa !3
  %23 = getelementptr inbounds nuw %struct.mbedtls_ecjpake_context, ptr %22, i32 0, i32 2
  %24 = load i32, ptr %23, align 8, !tbaa !23
  %25 = sub i32 1, %24
  %26 = zext i32 %25 to i64
  %27 = getelementptr inbounds nuw [2 x ptr], ptr @ecjpake_id, i64 0, i64 %26
  %28 = load ptr, ptr %27, align 8, !tbaa !20
  %29 = load ptr, ptr %5, align 8, !tbaa !20
  %30 = load i64, ptr %6, align 8, !tbaa !22
  %31 = call i32 @ecjpake_kkpp_read(i32 noundef %9, ptr noundef %11, i32 noundef %14, ptr noundef %17, ptr noundef %19, ptr noundef %21, ptr noundef %28, ptr noundef %29, i64 noundef %30)
  ret i32 %31
}