; Function Attrs: nounwind uwtable
define hidden i32 @mbedtls_ecjpake_read_round_one(ptr noundef %0, ptr noundef %1, i64 noundef %2) local_unnamed_addr #0 {
  %4 = alloca ptr, align 8
  %5 = load i32, ptr %0, align 8, !tbaa !3
  %6 = getelementptr inbounds nuw i8, ptr %0, i64 8
  %7 = getelementptr inbounds nuw i8, ptr %0, i64 204
  %8 = load i32, ptr %7, align 4, !tbaa !16
  %9 = getelementptr inbounds nuw i8, ptr %0, i64 64
  %10 = getelementptr inbounds nuw i8, ptr %0, i64 304
  %11 = getelementptr inbounds nuw i8, ptr %0, i64 200
  %12 = load i32, ptr %11, align 8, !tbaa !17
  %13 = sub i32 1, %12
  %14 = zext i32 %13 to i64
  %15 = getelementptr inbounds nuw [2 x ptr], ptr @ecjpake_id, i64 0, i64 %14
  %16 = load ptr, ptr %15, align 8, !tbaa !20
  call void @llvm.lifetime.start.p0(i64 8, ptr nonnull %4) #15
  store ptr %1, ptr %4, align 8, !tbaa !20
  %17 = getelementptr inbounds nuw i8, ptr %1, i64 %2
  %18 = call fastcc i32 @ecjpake_kkp_read(i32 noundef %5, ptr noundef nonnull %6, i32 noundef %8, ptr noundef nonnull %9, ptr noundef nonnull %10, ptr noundef readonly %16, ptr noundef %4, ptr noundef %17)
  %.not.i = icmp eq i32 %18, 0
  br i1 %.not.i, label %19, label %ecjpake_kkpp_read.exit

19:                                               ; preds = %3
  %20 = getelementptr inbounds nuw i8, ptr %0, i64 352
  %21 = call fastcc i32 @ecjpake_kkp_read(i32 noundef %5, ptr noundef nonnull %6, i32 noundef %8, ptr noundef nonnull %9, ptr noundef nonnull %20, ptr noundef readonly %16, ptr noundef %4, ptr noundef %17)
  %.not20.i = icmp eq i32 %21, 0
  br i1 %.not20.i, label %22, label %ecjpake_kkpp_read.exit

22:                                               ; preds = %19
  %23 = load ptr, ptr %4, align 8, !tbaa !20
  %.not21.i = icmp eq ptr %23, %17
  %spec.select.i = select i1 %.not21.i, i32 0, i32 -20352
  br label %ecjpake_kkpp_read.exit

ecjpake_kkpp_read.exit:                           ; preds = %3, %19, %22
  %.0.i = phi i32 [ %18, %3 ], [ %21, %19 ], [ %spec.select.i, %22 ]
  call void @llvm.lifetime.end.p0(i64 8, ptr nonnull %4) #15
  ret i32 %.0.i
}